target datalayout = "e-m:e-p270:32:32-p271:32:32-p272:64:64-i64:64-i128:128-f80:128-n8:16:32:64-S128"
target triple = "x86_64-unknown-linux-gnu"

%class.symbol = type { ptr }
%struct.static_features = type { ptr, %class.arith_util, %class.bv_util, %class.array_util, %class.fpa_util, %class.seq_util, i32, i32, i32, i32, i32, %class.ast_mark, %class.ast_mark, i8, i32, i32, i32, i32, i32, i32, i32, i32, i32, i32, i32, i32, i32, i32, i32, i32, i32, i32, i32, i32, i32, i32, i32, i32, i32, i32, i32, i32, i8, i8, i8, i8, i8, i8, i8, i8, i8, i8, %class.rational, i32, i32, i32, i32, i32, i32, i32, i32, i32, %class.svector, %class.svector, %class.svector, %class.svector, %class.svector, i32, %class.svector, %class.svector, i32, [4 x i8], %class.u_map, %class.u_map, %class.u_map, i32, %class.svector.3, %class.symbol, %class.symbol, %class.symbol, %class.svector.5 }
%class.arith_util = type { ptr, ptr }
%class.bv_util = type { %class.bv_recognizers, ptr, ptr }
%class.bv_recognizers = type { i32 }
%class.array_util = type { %class.array_recognizers, ptr }
%class.array_recognizers = type { i32 }
%class.fpa_util = type { ptr, ptr, i32, %class.arith_util, %class.bv_util }
%class.seq_util = type { ptr, ptr, ptr, i32, [4 x i8], %"class.seq_util::str", %"class.seq_util::rex" }
%"class.seq_util::str" = type <{ ptr, ptr, i32, [4 x i8] }>
%"class.seq_util::rex" = type { ptr, ptr, i32, %class.vector, %class.ref_vector, %"struct.seq_util::rex::info", %"struct.seq_util::rex::info" }
%class.vector = type { ptr }
%class.ref_vector = type { %class.ref_vector_core }
%class.ref_vector_core = type { %class.ref_manager_wrapper, %class.ptr_vector }
%class.ref_manager_wrapper = type { ptr }
%class.ptr_vector = type { %class.vector.0 }
%class.vector.0 = type { ptr }
%"struct.seq_util::rex::info" = type { i32, i8, i32, i32 }
%class.ast_mark = type { ptr, %class.obj_mark, %class.obj_mark.1 }
%class.obj_mark = type { %struct.default_t2uint, %class.bit_vector }
%struct.default_t2uint = type { i8 }
%class.bit_vector = type { i32, i32, ptr }
%class.obj_mark.1 = type { %"struct.ast_mark::decl2uint", %class.bit_vector }
%"struct.ast_mark::decl2uint" = type { i8 }
%class.rational = type { %class.mpq }
%class.mpq = type { %class.mpz, %class.mpz }
%class.mpz = type { i32, i8, ptr }
%class.svector = type { %class.vector.2 }
%class.vector.2 = type { ptr }
%class.u_map = type { %class.map }
%class.map = type { %class.table2map }
%class.table2map = type { %class.core_hashtable }
%class.core_hashtable = type <{ ptr, i32, i32, i32, [4 x i8] }>
%class.svector.3 = type { %class.vector.4 }
%class.vector.4 = type { ptr }
%class.svector.5 = type { %class.vector.6 }
%class.vector.6 = type { ptr }
%"struct.static_features::to_process" = type { ptr, i8, i8, i8 }

; Function Attrs: mustprogress nounwind uwtable
define linkonce_odr hidden noundef nonnull align 8 dereferenceable(16) ptr @_ZN6vectorIN15static_features10to_processELb0EjEixEj(ptr noundef nonnull align 8 dereferenceable(8) %this, i32 noundef %idx) #5 comdat align 2 {
entry:
  %this.addr = alloca ptr, align 8
  %idx.addr = alloca i32, align 4
  store ptr %this, ptr %this.addr, align 8
  store i32 %idx, ptr %idx.addr, align 4
  %this1 = load ptr, ptr %this.addr, align 8
  %m_data = getelementptr inbounds %class.vector.6, ptr %this1, i32 0, i32 0
  %0 = load ptr, ptr %m_data, align 8
  %1 = load i32, ptr %idx.addr, align 4
  %idxprom = zext i32 %1 to i64
  %arrayidx = getelementptr inbounds %"struct.static_features::to_process", ptr %0, i64 %idxprom
  ret ptr %arrayidx
}

; Function Attrs: mustprogress nounwind uwtable
define linkonce_odr hidden noundef i32 @_ZNK6vectorIN15static_features10to_processELb0EjE4sizeEv(ptr noundef nonnull align 8 dereferenceable(8) %this) #5 comdat align 2 {
entry:
  %retval = alloca i32, align 4
  %this.addr = alloca ptr, align 8
  store ptr %this, ptr %this.addr, align 8
  %this1 = load ptr, ptr %this.addr, align 8
  %m_data = getelementptr inbounds %class.vector.6, ptr %this1, i32 0, i32 0
  %0 = load ptr, ptr %m_data, align 8
  %cmp = icmp eq ptr %0, null
  br i1 %cmp, label %if.then, label %if.end

if.then:                                          ; preds = %entry
  store i32 0, ptr %retval, align 4
  br label %return

if.end:                                           ; preds = %entry
  %m_data2 = getelementptr inbounds %class.vector.6, ptr %this1, i32 0, i32 0
  %1 = load ptr, ptr %m_data2, align 8
  %arrayidx = getelementptr inbounds i32, ptr %1, i64 -1
  %2 = load i32, ptr %arrayidx, align 4
  store i32 %2, ptr %retval, align 4
  br label %return

return:                                           ; preds = %if.end, %if.then
  %3 = load i32, ptr %retval, align 4
  ret i32 %3
}

; Function Attrs: mustprogress nounwind uwtable
define linkonce_odr hidden void @_ZN6vectorIN15static_features10to_processELb0EjE8pop_backEv(ptr noundef nonnull align 8 dereferenceable(8) %this) #5 comdat align 2 {
entry:
  %this.addr = alloca ptr, align 8
  store ptr %this, ptr %this.addr, align 8
  %this1 = load ptr, ptr %this.addr, align 8
  %m_data = getelementptr inbounds %class.vector.6, ptr %this1, i32 0, i32 0
  %0 = load ptr, ptr %m_data, align 8
  %arrayidx = getelementptr inbounds i32, ptr %0, i64 -1
  %1 = load i32, ptr %arrayidx, align 4
  %dec = add i32 %1, -1
  store i32 %dec, ptr %arrayidx, align 4
  ret void
}

; Function Attrs: mustprogress uwtable
define linkonce_odr hidden noundef zeroext i1 @_ZNK15static_features14is_marked_postEP3ast(ptr noundef nonnull align 8 dereferenceable(792) %this, ptr noundef %e) #4 comdat align 2 {
entry:
  %this.addr = alloca ptr, align 8
  %e.addr = alloca ptr, align 8
  store ptr %this, ptr %this.addr, align 8
  store ptr %e, ptr %e.addr, align 8
  %this1 = load ptr, ptr %this.addr, align 8
  %m_post_processed = getelementptr inbounds %struct.static_features, ptr %this1, i32 0, i32 12
  %0 = load ptr, ptr %e.addr, align 8
  %call = call noundef zeroext i1 @_ZNK8ast_mark9is_markedEP3ast(ptr noundef nonnull align 8 dereferenceable(56) %m_post_processed, ptr noundef %0)
  ret i1 %call
}

; Function Attrs: mustprogress uwtable
define linkonce_odr hidden noundef nonnull align 8 dereferenceable(16) ptr @_ZN6vectorIN15static_features10to_processELb0EjE4backEv(ptr noundef nonnull align 8 dereferenceable(8) %this) #4 comdat align 2 {
entry:
  %this.addr = alloca ptr, align 8
  store ptr %this, ptr %this.addr, align 8
  %this1 = load ptr, ptr %this.addr, align 8
  %call = call noundef i32 @_ZNK6vectorIN15static_features10to_processELb0EjE4sizeEv(ptr noundef nonnull align 8 dereferenceable(8) %this1)
  %sub = sub i32 %call, 1
  %call2 = call noundef nonnull align 8 dereferenceable(16) ptr @_ZN6vectorIN15static_features10to_processELb0EjEixEj(ptr noundef nonnull align 8 dereferenceable(8) %this1, i32 noundef %sub)
  ret ptr %call2
}

; Function Attrs: mustprogress nounwind uwtable
define linkonce_odr hidden noundef zeroext i1 @_ZNK6vectorIN15static_features10to_processELb0EjE5emptyEv(ptr noundef nonnull align 8 dereferenceable(8) %this) #5 comdat align 2 {
entry:
  %this.addr = alloca ptr, align 8
  store ptr %this, ptr %this.addr, align 8
  %this1 = load ptr, ptr %this.addr, align 8
  %m_data = getelementptr inbounds %class.vector.6, ptr %this1, i32 0, i32 0
  %0 = load ptr, ptr %m_data, align 8
  %cmp = icmp eq ptr %0, null
  br i1 %cmp, label %lor.end, label %lor.rhs

lor.rhs:                                          ; preds = %entry
  %m_data2 = getelementptr inbounds %class.vector.6, ptr %this1, i32 0, i32 0
  %1 = load ptr, ptr %m_data2, align 8
  %arrayidx = getelementptr inbounds i32, ptr %1, i64 -1
  %2 = load i32, ptr %arrayidx, align 4
  %cmp3 = icmp eq i32 %2, 0
  br label %lor.end

lor.end:                                          ; preds = %lor.rhs, %entry
  %3 = phi i1 [ true, %entry ], [ %cmp3, %lor.rhs ]
  ret i1 %3
}

; Function Attrs: mustprogress uwtable
define hidden void @_ZN15static_features11process_allEv(ptr noundef nonnull align 8 dereferenceable(792) %this) #4 align 2 {
entry:
  %this.addr = alloca ptr, align 8
  %0 = alloca ptr, align 8
  store ptr %this, ptr %this.addr, align 8
  %this1 = load ptr, ptr %this.addr, align 8
  br label %while.cond

while.cond:                                       ; preds = %if.end11, %if.then10, %if.then, %entry
  %m_to_process = getelementptr inbounds %struct.static_features, ptr %this1, i32 0, i32 80
  %call = call noundef zeroext i1 @_ZNK6vectorIN15static_features10to_processELb0EjE5emptyEv(ptr noundef nonnull align 8 dereferenceable(8) %m_to_process)
  %lnot = xor i1 %call, true
  br i1 %lnot, label %while.body, label %while.end

while.body:                                       ; preds = %while.cond
  %m_to_process2 = getelementptr inbounds %struct.static_features, ptr %this1, i32 0, i32 80
  %call3 = call noundef nonnull align 8 dereferenceable(16) ptr @_ZN6vectorIN15static_features10to_processELb0EjE4backEv(ptr noundef nonnull align 8 dereferenceable(8) %m_to_process2)
  store ptr %call3, ptr %0, align 8
  %1 = load ptr, ptr %0, align 8
  %e = getelementptr inbounds %"struct.static_features::to_process", ptr %1, i32 0, i32 0
  %2 = load ptr, ptr %e, align 8
  %call4 = call noundef zeroext i1 @_ZNK15static_features14is_marked_postEP3ast(ptr noundef nonnull align 8 dereferenceable(792) %this1, ptr noundef %2)
  br i1 %call4, label %if.then, label %if.end

if.then:                                          ; preds = %while.body
  %m_to_process5 = getelementptr inbounds %struct.static_features, ptr %this1, i32 0, i32 80
  call void @_ZN6vectorIN15static_features10to_processELb0EjE8pop_backEv(ptr noundef nonnull align 8 dereferenceable(8) %m_to_process5)
  %m_num_sharing = getelementptr inbounds %struct.static_features, ptr %this1, i32 0, i32 35
  %3 = load i32, ptr %m_num_sharing, align 8
  %inc = add i32 %3, 1
  store i32 %inc, ptr %m_num_sharing, align 8
  br label %while.cond, !llvm.loop !9

if.end:                                           ; preds = %while.body
  %4 = load ptr, ptr %0, align 8
  %e6 = getelementptr inbounds %"struct.static_features::to_process", ptr %4, i32 0, i32 0
  %5 = load ptr, ptr %e6, align 8
  %6 = load ptr, ptr %0, align 8
  %form_ctx = getelementptr inbounds %"struct.static_features::to_process", ptr %6, i32 0, i32 1
  %7 = load i8, ptr %form_ctx, align 8
  %tobool = trunc i8 %7 to i1
  %8 = load ptr, ptr %0, align 8
  %and_or_ctx = getelementptr inbounds %"struct.static_features::to_process", ptr %8, i32 0, i32 2
  %9 = load i8, ptr %and_or_ctx, align 1
  %tobool7 = trunc i8 %9 to i1
  %10 = load ptr, ptr %0, align 8
  %ite_ctx = getelementptr inbounds %"struct.static_features::to_process", ptr %10, i32 0, i32 3
  %11 = load i8, ptr %ite_ctx, align 2
  %tobool8 = trunc i8 %11 to i1
  %call9 = call noundef zeroext i1 @_ZN15static_features11pre_processEP4exprbbb(ptr noundef nonnull align 8 dereferenceable(792) %this1, ptr noundef %5, i1 noundef zeroext %tobool, i1 noundef zeroext %tobool7, i1 noundef zeroext %tobool8)
  br i1 %call9, label %if.end11, label %if.then10

if.then10:                                        ; preds = %if.end
  br label %while.cond, !llvm.loop !9

if.end11:                                         ; preds = %if.end
  %12 = load ptr, ptr %0, align 8
  %e12 = getelementptr inbounds %"struct.static_features::to_process", ptr %12, i32 0, i32 0
  %13 = load ptr, ptr %e12, align 8
  %14 = load ptr, ptr %0, align 8
  %form_ctx13 = getelementptr inbounds %"struct.static_features::to_process", ptr %14, i32 0, i32 1
  %15 = load i8, ptr %form_ctx13, align 8
  %tobool14 = trunc i8 %15 to i1
  %16 = load ptr, ptr %0, align 8
  %and_or_ctx15 = getelementptr inbounds %"struct.static_features::to_process", ptr %16, i32 0, i32 2
  %17 = load i8, ptr %and_or_ctx15, align 1
  %tobool16 = trunc i8 %17 to i1
  %18 = load ptr, ptr %0, align 8
  %ite_ctx17 = getelementptr inbounds %"struct.static_features::to_process", ptr %18, i32 0, i32 3
  %19 = load i8, ptr %ite_ctx17, align 2
  %tobool18 = trunc i8 %19 to i1
  call void @_ZN15static_features12post_processEP4exprbbb(ptr noundef nonnull align 8 dereferenceable(792) %this1, ptr noundef %13, i1 noundef zeroext %tobool14, i1 noundef zeroext %tobool16, i1 noundef zeroext %tobool18)
  %m_to_process19 = getelementptr inbounds %struct.static_features, ptr %this1, i32 0, i32 80
  call void @_ZN6vectorIN15static_features10to_processELb0EjE8pop_backEv(ptr noundef nonnull align 8 dereferenceable(8) %m_to_process19)
  br label %while.cond, !llvm.loop !9

while.end:                                        ; preds = %while.cond
  ret void
}