; Function Attrs: mustprogress uwtable
define hidden void @_ZN15static_features11process_allEv(ptr noundef nonnull align 8 dereferenceable(792) %this) local_unnamed_addr #3 align 2 {
entry:
  %m_to_process = getelementptr inbounds i8, ptr %this, i64 784
  %0 = load ptr, ptr %m_to_process, align 8
  %cmp.i12 = icmp eq ptr %0, null
  br i1 %cmp.i12, label %while.end, label %_ZNK6vectorIN15static_features10to_processELb0EjE5emptyEv.exit.lr.ph

_ZNK6vectorIN15static_features10to_processELb0EjE5emptyEv.exit.lr.ph: ; preds = %entry
  %m_post_processed.i = getelementptr inbounds i8, ptr %this, i64 344
  %m_num_sharing = getelementptr inbounds i8, ptr %this, i64 488
  br label %_ZNK6vectorIN15static_features10to_processELb0EjE5emptyEv.exit

_ZNK6vectorIN15static_features10to_processELb0EjE5emptyEv.exit: ; preds = %_ZNK6vectorIN15static_features10to_processELb0EjE5emptyEv.exit.lr.ph, %while.cond.backedge
  %1 = phi ptr [ %0, %_ZNK6vectorIN15static_features10to_processELb0EjE5emptyEv.exit.lr.ph ], [ %9, %while.cond.backedge ]
  %arrayidx.i = getelementptr inbounds i8, ptr %1, i64 -4
  %2 = load i32, ptr %arrayidx.i, align 4
  %cmp3.i = icmp eq i32 %2, 0
  br i1 %cmp3.i, label %while.end, label %_ZN6vectorIN15static_features10to_processELb0EjE4backEv.exit

_ZN6vectorIN15static_features10to_processELb0EjE4backEv.exit: ; preds = %_ZNK6vectorIN15static_features10to_processELb0EjE5emptyEv.exit
  %3 = add i32 %2, -1
  %4 = zext i32 %3 to i64
  %arrayidx.i1.i = getelementptr inbounds %"struct.static_features::to_process", ptr %1, i64 %4
  %5 = load ptr, ptr %arrayidx.i1.i, align 8
  %call.i = tail call noundef zeroext i1 @_ZNK8ast_mark9is_markedEP3ast(ptr noundef nonnull align 8 dereferenceable(56) %m_post_processed.i, ptr noundef %5)
  br i1 %call.i, label %if.then, label %if.end

if.then:                                          ; preds = %_ZN6vectorIN15static_features10to_processELb0EjE4backEv.exit
  %6 = load ptr, ptr %m_to_process, align 8
  %arrayidx.i9 = getelementptr inbounds i8, ptr %6, i64 -4
  %7 = load i32, ptr %arrayidx.i9, align 4
  %dec.i = add i32 %7, -1
  store i32 %dec.i, ptr %arrayidx.i9, align 4
  %8 = load i32, ptr %m_num_sharing, align 8
  %inc = add i32 %8, 1
  store i32 %inc, ptr %m_num_sharing, align 8
  br label %while.cond.backedge

while.cond.backedge:                              ; preds = %if.then, %if.end11, %if.end
  %9 = load ptr, ptr %m_to_process, align 8
  %cmp.i = icmp eq ptr %9, null
  br i1 %cmp.i, label %while.end, label %_ZNK6vectorIN15static_features10to_processELb0EjE5emptyEv.exit, !llvm.loop !21

if.end:                                           ; preds = %_ZN6vectorIN15static_features10to_processELb0EjE4backEv.exit
  %10 = load ptr, ptr %arrayidx.i1.i, align 8
  %call9 = tail call noundef zeroext i1 @_ZN15static_features11pre_processEP4exprbbb(ptr noundef nonnull align 8 dereferenceable(792) %this, ptr noundef %10, i1 zeroext poison, i1 zeroext poison, i1 zeroext poison)
  br i1 %call9, label %if.end11, label %while.cond.backedge

if.end11:                                         ; preds = %if.end
  %ite_ctx = getelementptr inbounds i8, ptr %arrayidx.i1.i, i64 10
  %11 = load ptr, ptr %arrayidx.i1.i, align 8
  %12 = load i8, ptr %ite_ctx, align 2
  %13 = and i8 %12, 1
  %tobool18 = icmp ne i8 %13, 0
  tail call void @_ZN15static_features12post_processEP4exprbbb(ptr noundef nonnull align 8 dereferenceable(792) %this, ptr noundef %11, i1 zeroext poison, i1 zeroext poison, i1 noundef zeroext %tobool18)
  %14 = load ptr, ptr %m_to_process, align 8
  %arrayidx.i10 = getelementptr inbounds i8, ptr %14, i64 -4
  %15 = load i32, ptr %arrayidx.i10, align 4
  %dec.i11 = add i32 %15, -1
  store i32 %dec.i11, ptr %arrayidx.i10, align 4
  br label %while.cond.backedge

while.end:                                        ; preds = %_ZNK6vectorIN15static_features10to_processELb0EjE5emptyEv.exit, %while.cond.backedge, %entry
  ret void
}